; Function Attrs: mustprogress nofree norecurse nosync nounwind willreturn memory(none) uwtable
define zeroext range(i8 0, 2) i8 @l_Lean_Compiler_LCNF_instDecidableLtPhase(i8 noundef zeroext %0, i8 noundef zeroext %1) local_unnamed_addr #0 {
  switch i8 %0, label %4 [
    i8 0, label %l_Lean_Compiler_LCNF_Phase_toNat.exit
    i8 1, label %3
  ]

3:                                                ; preds = %2
  br label %l_Lean_Compiler_LCNF_Phase_toNat.exit

4:                                                ; preds = %2
  br label %l_Lean_Compiler_LCNF_Phase_toNat.exit

l_Lean_Compiler_LCNF_Phase_toNat.exit:            ; preds = %2, %3, %4
  %.0.i9 = phi ptr [ inttoptr (i64 5 to ptr), %4 ], [ inttoptr (i64 3 to ptr), %3 ], [ inttoptr (i64 1 to ptr), %2 ]
  switch i8 %1, label %6 [
    i8 0, label %lean_dec.exit
    i8 1, label %5
  ]

5:                                                ; preds = %l_Lean_Compiler_LCNF_Phase_toNat.exit
  br label %lean_dec.exit

6:                                                ; preds = %l_Lean_Compiler_LCNF_Phase_toNat.exit
  br label %lean_dec.exit

lean_dec.exit:                                    ; preds = %6, %5, %l_Lean_Compiler_LCNF_Phase_toNat.exit
  %.0.i10 = phi ptr [ inttoptr (i64 5 to ptr), %6 ], [ inttoptr (i64 3 to ptr), %5 ], [ inttoptr (i64 1 to ptr), %l_Lean_Compiler_LCNF_Phase_toNat.exit ]
  %7 = icmp samesign ult ptr %.0.i9, %.0.i10
  %8 = zext i1 %7 to i8
  ret i8 %8
}